; Function Attrs: mustprogress nofree norecurse nosync nounwind sspstrong willreturn memory(argmem: read) uwtable
define hidden ptr @rb_vm_ci_kwarg(ptr noundef %0) local_unnamed_addr #10 {
  %2 = ptrtoint ptr %0 to i64
  %3 = and i64 %2, 1
  %.not.i.not.i = icmp eq i64 %3, 0
  br i1 %.not.i.not.i, label %4, label %vm_ci_kwarg.exit

4:                                                ; preds = %1
  %5 = getelementptr inbounds nuw i8, ptr %0, i64 8
  %6 = load ptr, ptr %5, align 8, !tbaa !129
  br label %vm_ci_kwarg.exit

vm_ci_kwarg.exit:                                 ; preds = %1, %4
  %.0.i = phi ptr [ %6, %4 ], [ null, %1 ]
  ret ptr %.0.i
}